target datalayout = "e-m:e-p270:32:32-p271:32:32-p272:64:64-i64:64-i128:128-f80:128-n8:16:32:64-S128"
target triple = "x86_64-pc-linux-gnu"

@opt_hash_hash_hash = internal global i8 0, align 1
@stderr = external global ptr, align 8
@.str.72 = private unnamed_addr constant [2 x i8] c"\0A\00", align 1
@.str.83 = private unnamed_addr constant [3 x i8] c"%s\00", align 1
@.str.84 = private unnamed_addr constant [4 x i8] c" %s\00", align 1
@.str.85 = private unnamed_addr constant [21 x i8] c"exec failed: %s: %s\0A\00", align 1

; Function Attrs: nounwind uwtable
define internal void @run_subprocess(ptr noundef %0) #0 {
  %2 = alloca ptr, align 8
  %3 = alloca i32, align 4
  %4 = alloca i32, align 4
  store ptr %0, ptr %2, align 8, !tbaa !14
  %5 = load i8, ptr @opt_hash_hash_hash, align 1, !tbaa !16, !range !18, !noundef !19
  %6 = trunc i8 %5 to i1
  br i1 %6, label %7, label %35

7:                                                ; preds = %1
  %8 = load ptr, ptr @stderr, align 8, !tbaa !37
  %9 = load ptr, ptr %2, align 8, !tbaa !14
  %10 = getelementptr inbounds ptr, ptr %9, i64 0
  %11 = load ptr, ptr %10, align 8, !tbaa !7
  %12 = call i32 (ptr, ptr, ...) @fprintf(ptr noundef %8, ptr noundef @.str.83, ptr noundef %11) #11
  call void @llvm.lifetime.start.p0(i64 4, ptr %3) #11
  store i32 1, ptr %3, align 4, !tbaa !12
  br label %13

13:                                               ; preds = %29, %7
  %14 = load ptr, ptr %2, align 8, !tbaa !14
  %15 = load i32, ptr %3, align 4, !tbaa !12
  %16 = sext i32 %15 to i64
  %17 = getelementptr inbounds ptr, ptr %14, i64 %16
  %18 = load ptr, ptr %17, align 8, !tbaa !7
  %19 = icmp ne ptr %18, null
  br i1 %19, label %21, label %20

20:                                               ; preds = %13
  call void @llvm.lifetime.end.p0(i64 4, ptr %3) #11
  br label %32

21:                                               ; preds = %13
  %22 = load ptr, ptr @stderr, align 8, !tbaa !37
  %23 = load ptr, ptr %2, align 8, !tbaa !14
  %24 = load i32, ptr %3, align 4, !tbaa !12
  %25 = sext i32 %24 to i64
  %26 = getelementptr inbounds ptr, ptr %23, i64 %25
  %27 = load ptr, ptr %26, align 8, !tbaa !7
  %28 = call i32 (ptr, ptr, ...) @fprintf(ptr noundef %22, ptr noundef @.str.84, ptr noundef %27) #11
  br label %29

29:                                               ; preds = %21
  %30 = load i32, ptr %3, align 4, !tbaa !12
  %31 = add nsw i32 %30, 1
  store i32 %31, ptr %3, align 4, !tbaa !12
  br label %13, !llvm.loop !64

32:                                               ; preds = %20
  %33 = load ptr, ptr @stderr, align 8, !tbaa !37
  %34 = call i32 (ptr, ptr, ...) @fprintf(ptr noundef %33, ptr noundef @.str.72) #11
  br label %35

35:                                               ; preds = %32, %1
  %36 = call i32 @fork() #11
  %37 = icmp eq i32 %36, 0
  br i1 %37, label %38, label %52

38:                                               ; preds = %35
  %39 = load ptr, ptr %2, align 8, !tbaa !14
  %40 = getelementptr inbounds ptr, ptr %39, i64 0
  %41 = load ptr, ptr %40, align 8, !tbaa !7
  %42 = load ptr, ptr %2, align 8, !tbaa !14
  %43 = call i32 @execvp(ptr noundef %41, ptr noundef %42) #11
  %44 = load ptr, ptr @stderr, align 8, !tbaa !37
  %45 = load ptr, ptr %2, align 8, !tbaa !14
  %46 = getelementptr inbounds ptr, ptr %45, i64 0
  %47 = load ptr, ptr %46, align 8, !tbaa !7
  %48 = call ptr @__errno_location() #15
  %49 = load i32, ptr %48, align 4, !tbaa !12
  %50 = call ptr @strerror(i32 noundef %49) #11
  %51 = call i32 (ptr, ptr, ...) @fprintf(ptr noundef %44, ptr noundef @.str.85, ptr noundef %47, ptr noundef %50) #11
  call void @_exit(i32 noundef 1) #12
  unreachable

52:                                               ; preds = %35
  call void @llvm.lifetime.start.p0(i64 4, ptr %4) #11
  br label %53

53:                                               ; preds = %56, %52
  %54 = call i32 @wait(ptr noundef %4)
  %55 = icmp sgt i32 %54, 0
  br i1 %55, label %56, label %57

56:                                               ; preds = %53
  br label %53, !llvm.loop !65

57:                                               ; preds = %53
  %58 = load i32, ptr %4, align 4, !tbaa !12
  %59 = icmp ne i32 %58, 0
  br i1 %59, label %60, label %61

60:                                               ; preds = %57
  call void @exit(i32 noundef 1) #14
  unreachable

61:                                               ; preds = %57
  call void @llvm.lifetime.end.p0(i64 4, ptr %4) #11
  ret void
}