; Function Attrs: nounwind uwtable
define internal fastcc void @run_subprocess(ptr noundef %0) unnamed_addr #3 {
  %2 = alloca i32, align 4
  %.b9 = load i1, ptr @opt_hash_hash_hash, align 1
  br i1 %.b9, label %3, label %14

3:                                                ; preds = %1
  %4 = load ptr, ptr @stderr, align 8, !tbaa !37
  %5 = load ptr, ptr %0, align 8, !tbaa !7
  %fputs = tail call i32 @fputs(ptr %5, ptr %4) #23
  %6 = getelementptr inbounds nuw i8, ptr %0, i64 8
  %7 = load ptr, ptr %6, align 8, !tbaa !7
  %.not11 = icmp eq ptr %7, null
  br i1 %.not11, label %._crit_edge, label %.lr.ph

._crit_edge:                                      ; preds = %.lr.ph, %3
  %8 = load ptr, ptr @stderr, align 8, !tbaa !37
  %fputc = tail call i32 @fputc(i32 10, ptr %8)
  br label %14

.lr.ph:                                           ; preds = %3, %.lr.ph
  %indvars.iv = phi i64 [ %indvars.iv.next, %.lr.ph ], [ 1, %3 ]
  %9 = phi ptr [ %13, %.lr.ph ], [ %7, %3 ]
  %10 = load ptr, ptr @stderr, align 8, !tbaa !37
  %11 = tail call i32 (ptr, ptr, ...) @fprintf(ptr noundef %10, ptr noundef nonnull @.str.84, ptr noundef nonnull %9) #24
  %indvars.iv.next = add nuw nsw i64 %indvars.iv, 1
  %12 = getelementptr inbounds nuw ptr, ptr %0, i64 %indvars.iv.next
  %13 = load ptr, ptr %12, align 8, !tbaa !7
  %.not = icmp eq ptr %13, null
  br i1 %.not, label %._crit_edge, label %.lr.ph, !llvm.loop !64

14:                                               ; preds = %._crit_edge, %1
  %15 = tail call i32 @fork() #18
  %16 = icmp eq i32 %15, 0
  br i1 %16, label %17, label %26

17:                                               ; preds = %14
  %18 = load ptr, ptr %0, align 8, !tbaa !7
  %19 = tail call i32 @execvp(ptr noundef %18, ptr noundef nonnull %0) #18
  %20 = load ptr, ptr @stderr, align 8, !tbaa !37
  %21 = load ptr, ptr %0, align 8, !tbaa !7
  %22 = tail call ptr @__errno_location() #21
  %23 = load i32, ptr %22, align 4, !tbaa !21
  %24 = tail call ptr @strerror(i32 noundef %23) #18
  %25 = tail call i32 (ptr, ptr, ...) @fprintf(ptr noundef %20, ptr noundef nonnull @.str.85, ptr noundef %21, ptr noundef %24) #24
  tail call void @_exit(i32 noundef 1) #20
  unreachable

26:                                               ; preds = %14
  call void @llvm.lifetime.start.p0(i64 4, ptr nonnull %2) #18
  br label %27

27:                                               ; preds = %27, %26
  %28 = call i32 @wait(ptr noundef nonnull %2) #18
  %29 = icmp sgt i32 %28, 0
  br i1 %29, label %27, label %30, !llvm.loop !65

30:                                               ; preds = %27
  %31 = load i32, ptr %2, align 4, !tbaa !21
  %.not10 = icmp eq i32 %31, 0
  br i1 %.not10, label %33, label %32

32:                                               ; preds = %30
  call void @exit(i32 noundef 1) #25
  unreachable

33:                                               ; preds = %30
  call void @llvm.lifetime.end.p0(i64 4, ptr nonnull %2) #18
  ret void
}